Certificate Request:
    Data:
        Version: 0 (0x0)
        Subject: C=SP, ST=Spain, L=Granada, O=Internet Widgits Pty Ltd, CN=Miguel/emailAddress=miguemc@correo.ugr.es
        Subject Public Key Info:
            Public Key Algorithm: rsaEncryption
                Public-Key: (1024 bit)
                Modulus:
                    00:de:9d:9d:61:f1:d2:04:c7:60:3e:34:9f:b3:a9:
                    34:43:ab:5a:d5:4d:df:97:ae:68:61:46:76:03:da:
                    13:4a:d7:b7:9f:1b:8c:36:b8:b7:89:ea:5e:0c:c9:
                    2b:55:0c:47:4e:7a:39:63:40:0e:4d:f9:bd:56:3e:
                    f8:dd:ef:13:8e:52:06:51:87:b9:27:d0:65:09:2a:
                    f0:87:99:f3:3a:35:61:4f:4b:f7:91:f7:ea:5e:98:
                    04:18:36:f4:29:c1:3e:66:80:e9:b5:c3:28:eb:56:
                    01:bd:ab:75:c7:00:88:65:01:93:3a:f9:14:60:52:
                    62:a8:86:29:9c:89:f4:b3:6b
                Exponent: 65537 (0x10001)
        Attributes:
            challengePassword        :0123456789
    Signature Algorithm: sha256WithRSAEncryption
         a5:6a:43:f6:2a:7a:61:0d:aa:85:24:f7:8e:06:d1:49:c1:f8:
         c8:8c:9e:68:1d:a1:a8:94:96:5d:a3:da:f1:2b:65:57:6d:21:
         b3:1b:f1:80:96:30:a4:ed:80:33:31:99:19:e2:e5:db:dd:31:
         33:5e:28:a4:fb:6d:7f:55:14:0c:40:50:60:49:54:0e:6d:6c:
         3e:b9:61:f7:fc:07:af:8a:23:83:fc:f6:74:ac:49:86:d3:c8:
         66:18:70:f0:4e:5f:c0:09:91:f8:73:bb:a4:66:78:fb:57:11:
         d6:f0:88:51:22:a0:bb:ca:27:66:b2:27:e3:27:38:45:99:e7:
         c7:ce
-----BEGIN CERTIFICATE REQUEST-----
MIIB5TCCAU4CAQAwgYkxCzAJBgNVBAYTAlNQMQ4wDAYDVQQIDAVTcGFpbjEQMA4G
A1UEBwwHR3JhbmFkYTEhMB8GA1UECgwYSW50ZXJuZXQgV2lkZ2l0cyBQdHkgTHRk
MQ8wDQYDVQQDDAZNaWd1ZWwxJDAiBgkqhkiG9w0BCQEWFW1pZ3VlbWNAY29ycmVv
LnVnci5lczCBnzANBgkqhkiG9w0BAQEFAAOBjQAwgYkCgYEA3p2dYfHSBMdgPjSf
s6k0Q6ta1U3fl65oYUZ2A9oTSte3nxuMNri3iepeDMkrVQxHTno5Y0AOTfm9Vj74
3e8TjlIGUYe5J9BlCSrwh5nzOjVhT0v3kffqXpgEGDb0KcE+ZoDptcMo61YBvat1
xwCIZQGTOvkUYFJiqIYpnIn0s2sCAwEAAaAbMBkGCSqGSIb3DQEJBzEMDAowMTIz
NDU2Nzg5MA0GCSqGSIb3DQEBCwUAA4GBAKVqQ/YqemENqoUk944G0UnB+MiMnmgd
oaiUll2j2vErZVdtIbMb8YCWMKTtgDMxmRni5dvdMTNeKKT7bX9VFAxAUGBJVA5t
bD65Yff8B6+KI4P89nSsSYbTyGYYcPBOX8AJkfhzu6RmePtXEdbwiFEioLvKJ2ay
J+MnOEWZ58fO
-----END CERTIFICATE REQUEST-----
