Certificate:
    Data:
        Version: 3 (0x2)
        Serial Number: 4096 (0x1000)
    Signature Algorithm: dsa_with_SHA256
        Issuer: C=SP, ST=Spain, L=Granada, O=Internet Widgits Pty Ltd, CN=Miguel/emailAddress=miguemc@correo.ugr.es
        Validity
            Not Before: Dec 10 23:15:17 2017 GMT
            Not After : Dec 10 23:15:17 2018 GMT
        Subject: C=SP, ST=Spain, O=Internet Widgits Pty Ltd, CN=Miguel/emailAddress=miguemc@correo.ugr.es
        Subject Public Key Info:
            Public Key Algorithm: dsaEncryption
                pub: 
                    03:52:91:81:10:9a:df:0c:1a:c2:6d:25:0b:46:c4:
                    eb:69:1d:ac:96:e6:34:ed:47:3b:5a:e5:7d:9e:d9:
                    8f:b1:9e:2a:73:fe:67:9f:40:ff:ba:f6:18:32:bc:
                    74:6f:5b:04:28:46:4b:22:76:45:78:b3:74:b8:f7:
                    d8:31:6d:3d:3d:82:3f:7c:2a:7e:15:85:f3:a7:6e:
                    62:d7:76:c4:d6:a0:a4:83:35:cd:06:ea:ed:81:53:
                    44:e0:ae:9a:fe:6e:0c:ec:d9:2e:fc:13:d1:01:bd:
                    8a:6d:dc:f4:eb:97:aa:6c:36:b0:bb:98:bf:0a:e9:
                    7c:35:81:87:1d:0a:e3:cb
                P:   
                    00:e4:b9:44:bf:e3:83:66:74:f1:55:d4:6d:7c:3b:
                    86:83:2f:7d:02:e4:18:fe:ad:cf:9c:d9:64:8c:63:
                    55:e3:6d:bd:93:ab:6e:a4:4e:a2:66:20:25:95:18:
                    98:d2:1d:1f:9e:32:ad:db:93:f7:dc:db:c0:a4:73:
                    dd:03:eb:48:18:49:fd:e2:a0:81:f9:9c:ef:6c:f4:
                    ed:f0:5c:e1:7c:5a:b7:37:d9:d4:5b:27:bd:74:9e:
                    6d:8f:91:66:a1:2b:6b:9f:7c:61:e1:be:a6:4c:c1:
                    c9:28:a3:1f:c1:ef:61:95:38:ff:df:0e:b9:40:68:
                    b2:bc:d0:3c:0b:03:ea:7b:cd
                Q:   
                    00:86:9e:c8:17:de:cf:af:77:03:10:b6:fd:57:0a:
                    2a:1e:93:14:a0:51
                G:   
                    69:95:fd:ef:19:60:7f:cb:f7:08:51:fb:6b:b3:d5:
                    aa:c7:07:d8:49:95:7d:07:9f:57:5f:4e:95:ce:74:
                    ff:c6:6d:c6:54:24:a8:da:d5:58:f5:5f:f5:70:be:
                    51:4d:1b:4f:8b:d3:0b:10:10:d1:8c:41:7f:94:51:
                    ed:8a:1e:1b:d1:b3:8b:24:1f:51:3b:c5:5f:a3:55:
                    81:01:4c:08:68:20:57:db:af:40:4d:ea:a5:d1:8a:
                    54:a3:4f:cb:29:2b:ad:d9:f8:77:8f:b8:e1:80:8d:
                    b8:53:19:e1:e6:48:89:1e:8d:d7:70:04:ae:d5:55:
                    5f:a0:59:3f:c9:79:26:1d
        X509v3 extensions:
            X509v3 Basic Constraints: 
                CA:FALSE
            Netscape Comment: 
                OpenSSL Generated Certificate
            X509v3 Subject Key Identifier: 
                52:9D:10:CE:80:64:B1:D3:7B:4A:1E:5D:15:AC:11:8A:20:2A:D7:43
            X509v3 Authority Key Identifier: 
                keyid:52:9D:10:CE:80:64:B1:D3:7B:4A:1E:5D:15:AC:11:8A:20:2A:D7:43

    Signature Algorithm: dsa_with_SHA256
         r:   
             4a:30:02:a2:b2:a3:27:46:4e:d7:c2:e3:05:50:7a:
             c8:69:5a:c3:70
         s:   
             45:31:17:d6:91:40:6f:54:10:7c:75:c0:db:65:df:
             71:1a:6a:c4:8f
-----BEGIN CERTIFICATE-----
MIIDtDCCA3KgAwIBAgICEAAwCwYJYIZIAWUDBAMCMIGJMQswCQYDVQQGEwJTUDEO
MAwGA1UECAwFU3BhaW4xEDAOBgNVBAcMB0dyYW5hZGExITAfBgNVBAoMGEludGVy
bmV0IFdpZGdpdHMgUHR5IEx0ZDEPMA0GA1UEAwwGTWlndWVsMSQwIgYJKoZIhvcN
AQkBFhVtaWd1ZW1jQGNvcnJlby51Z3IuZXMwHhcNMTcxMjEwMjMxNTE3WhcNMTgx
MjEwMjMxNTE3WjB3MQswCQYDVQQGEwJTUDEOMAwGA1UECAwFU3BhaW4xITAfBgNV
BAoMGEludGVybmV0IFdpZGdpdHMgUHR5IEx0ZDEPMA0GA1UEAwwGTWlndWVsMSQw
IgYJKoZIhvcNAQkBFhVtaWd1ZW1jQGNvcnJlby51Z3IuZXMwggG2MIIBKwYHKoZI
zjgEATCCAR4CgYEA5LlEv+ODZnTxVdRtfDuGgy99AuQY/q3PnNlkjGNV4229k6tu
pE6iZiAllRiY0h0fnjKt25P33NvApHPdA+tIGEn94qCB+ZzvbPTt8FzhfFq3N9nU
Wye9dJ5tj5FmoStrn3xh4b6mTMHJKKMfwe9hlTj/3w65QGiyvNA8CwPqe80CFQCG
nsgX3s+vdwMQtv1XCioekxSgUQKBgGmV/e8ZYH/L9whR+2uz1arHB9hJlX0Hn1df
TpXOdP/GbcZUJKja1Vj1X/VwvlFNG0+L0wsQENGMQX+UUe2KHhvRs4skH1E7xV+j
VYEBTAhoIFfbr0BN6qXRilSjT8spK63Z+HePuOGAjbhTGeHmSIkejddwBK7VVV+g
WT/JeSYdA4GEAAKBgANSkYEQmt8MGsJtJQtGxOtpHayW5jTtRzta5X2e2Y+xnipz
/mefQP+69hgyvHRvWwQoRksidkV4s3S499gxbT09gj98Kn4VhfOnbmLXdsTWoKSD
Nc0G6u2BU0Tgrpr+bgzs2S78E9EBvYpt3PTrl6psNrC7mL8K6Xw1gYcdCuPLo3sw
eTAJBgNVHRMEAjAAMCwGCWCGSAGG+EIBDQQfFh1PcGVuU1NMIEdlbmVyYXRlZCBD
ZXJ0aWZpY2F0ZTAdBgNVHQ4EFgQUUp0QzoBksdN7Sh5dFawRiiAq10MwHwYDVR0j
BBgwFoAUUp0QzoBksdN7Sh5dFawRiiAq10MwCwYJYIZIAWUDBAMCAy8AMCwCFEow
AqKyoydGTtfC4wVQeshpWsNwAhRFMRfWkUBvVBB8dcDbZd9xGmrEjw==
-----END CERTIFICATE-----
