Certificate:
    Data:
        Version: 3 (0x2)
        Serial Number: 4097 (0x1001)
    Signature Algorithm: dsa_with_SHA256
        Issuer: C=SP, ST=Spain, L=Granada, O=Internet Widgits Pty Ltd, CN=Miguel/emailAddress=miguemc@correo.ugr.es
        Validity
            Not Before: Dec 10 23:20:10 2017 GMT
            Not After : Dec 10 23:20:10 2018 GMT
        Subject: C=SP, ST=Spain, O=Internet Widgits Pty Ltd, CN=Miguel/emailAddress=miguemc@correo.ugr.es
        Subject Public Key Info:
            Public Key Algorithm: rsaEncryption
                Public-Key: (1024 bit)
                Modulus:
                    00:de:9d:9d:61:f1:d2:04:c7:60:3e:34:9f:b3:a9:
                    34:43:ab:5a:d5:4d:df:97:ae:68:61:46:76:03:da:
                    13:4a:d7:b7:9f:1b:8c:36:b8:b7:89:ea:5e:0c:c9:
                    2b:55:0c:47:4e:7a:39:63:40:0e:4d:f9:bd:56:3e:
                    f8:dd:ef:13:8e:52:06:51:87:b9:27:d0:65:09:2a:
                    f0:87:99:f3:3a:35:61:4f:4b:f7:91:f7:ea:5e:98:
                    04:18:36:f4:29:c1:3e:66:80:e9:b5:c3:28:eb:56:
                    01:bd:ab:75:c7:00:88:65:01:93:3a:f9:14:60:52:
                    62:a8:86:29:9c:89:f4:b3:6b
                Exponent: 65537 (0x10001)
        X509v3 extensions:
            X509v3 Basic Constraints: 
                CA:FALSE
            Netscape Comment: 
                OpenSSL Generated Certificate
            X509v3 Subject Key Identifier: 
                E6:0D:A5:0E:36:11:12:50:90:4C:7B:87:A4:14:26:92:AA:94:26:8A
            X509v3 Authority Key Identifier: 
                keyid:52:9D:10:CE:80:64:B1:D3:7B:4A:1E:5D:15:AC:11:8A:20:2A:D7:43

    Signature Algorithm: dsa_with_SHA256
         r:   
             6e:57:e4:69:42:2c:28:f5:79:00:45:a5:fb:2b:21:
             42:19:58:4b:2a
         s:   
             73:96:73:f1:68:c2:79:b5:e2:0c:41:55:3e:60:7e:
             4d:bf:c0:4a:32
-----BEGIN CERTIFICATE-----
MIICnDCCAlqgAwIBAgICEAEwCwYJYIZIAWUDBAMCMIGJMQswCQYDVQQGEwJTUDEO
MAwGA1UECAwFU3BhaW4xEDAOBgNVBAcMB0dyYW5hZGExITAfBgNVBAoMGEludGVy
bmV0IFdpZGdpdHMgUHR5IEx0ZDEPMA0GA1UEAwwGTWlndWVsMSQwIgYJKoZIhvcN
AQkBFhVtaWd1ZW1jQGNvcnJlby51Z3IuZXMwHhcNMTcxMjEwMjMyMDEwWhcNMTgx
MjEwMjMyMDEwWjB3MQswCQYDVQQGEwJTUDEOMAwGA1UECAwFU3BhaW4xITAfBgNV
BAoMGEludGVybmV0IFdpZGdpdHMgUHR5IEx0ZDEPMA0GA1UEAwwGTWlndWVsMSQw
IgYJKoZIhvcNAQkBFhVtaWd1ZW1jQGNvcnJlby51Z3IuZXMwgZ8wDQYJKoZIhvcN
AQEBBQADgY0AMIGJAoGBAN6dnWHx0gTHYD40n7OpNEOrWtVN35euaGFGdgPaE0rX
t58bjDa4t4nqXgzJK1UMR056OWNADk35vVY++N3vE45SBlGHuSfQZQkq8IeZ8zo1
YU9L95H36l6YBBg29CnBPmaA6bXDKOtWAb2rdccAiGUBkzr5FGBSYqiGKZyJ9LNr
AgMBAAGjezB5MAkGA1UdEwQCMAAwLAYJYIZIAYb4QgENBB8WHU9wZW5TU0wgR2Vu
ZXJhdGVkIENlcnRpZmljYXRlMB0GA1UdDgQWBBTmDaUONhESUJBMe4ekFCaSqpQm
ijAfBgNVHSMEGDAWgBRSnRDOgGSx03tKHl0VrBGKICrXQzALBglghkgBZQMEAwID
LwAwLAIUblfkaUIsKPV5AEWl+yshQhlYSyoCFHOWc/Fownm14gxBVT5gfk2/wEoy
-----END CERTIFICATE-----
